; Function Attrs: mustprogress nofree norecurse nosync nounwind willreturn memory(readwrite, inaccessiblemem: none) uwtable
define dso_local void @_ZN32btDeformableNodeAnchorConstraint12applyImpulseERK9btVector3(ptr noundef nonnull readonly align 8 captures(none) dereferenceable(48) %0, ptr noundef nonnull readonly align 4 captures(none) dereferenceable(16) %1) unnamed_addr #7 align 2 {
  %3 = getelementptr inbounds nuw i8, ptr %0, i64 40
  %4 = load ptr, ptr %3, align 8, !tbaa !17
  %5 = getelementptr inbounds nuw i8, ptr %4, i64 128
  %6 = load float, ptr %1, align 4, !tbaa !37
  %7 = load float, ptr %5, align 4, !tbaa !37
  %8 = fmul float %6, %7
  %9 = getelementptr inbounds nuw i8, ptr %1, i64 4
  %10 = load float, ptr %9, align 4, !tbaa !37
  %11 = fmul float %7, %10
  %12 = getelementptr inbounds nuw i8, ptr %1, i64 8
  %13 = load float, ptr %12, align 4, !tbaa !37
  %14 = fmul float %7, %13
  %15 = getelementptr inbounds nuw i8, ptr %4, i64 848
  %16 = load ptr, ptr %15, align 8, !tbaa !71
  %17 = getelementptr inbounds nuw i8, ptr %16, i64 48
  %18 = load float, ptr %17, align 4, !tbaa !37
  %19 = fsub float %18, %8
  store float %19, ptr %17, align 4, !tbaa !37
  %20 = getelementptr inbounds nuw i8, ptr %16, i64 52
  %21 = load float, ptr %20, align 4, !tbaa !37
  %22 = fsub float %21, %11
  store float %22, ptr %20, align 4, !tbaa !37
  %23 = getelementptr inbounds nuw i8, ptr %16, i64 56
  %24 = load float, ptr %23, align 4, !tbaa !37
  %25 = fsub float %24, %14
  store float %25, ptr %23, align 4, !tbaa !37
  ret void
}